target datalayout = "e-m:e-p270:32:32-p271:32:32-p272:64:64-i64:64-i128:128-f80:128-n8:16:32:64-S128"
target triple = "x86_64-pc-linux-gnu"

%class.ConversationAction = type <{ %class.QAction, ptr, %class.QByteArray, i32, [4 x i8] }>
%class.QAction = type { %class.QObject }
%class.QObject = type { ptr, %class.QScopedPointer }
%class.QScopedPointer = type { ptr }
%class.QByteArray = type { %struct.QArrayDataPointer }
%struct.QArrayDataPointer = type { ptr, ptr, i64 }
%struct.conversation_filter_s = type { ptr, ptr, ptr, ptr, ptr }

; Function Attrs: mustprogress uwtable
define noundef zeroext i1 @_ZN18ConversationAction13isFilterValidEP12_packet_info(ptr noundef nonnull align 8 dereferenceable(52) %0, ptr noundef %1) #0 align 2 {
  %3 = alloca ptr, align 8
  %4 = alloca ptr, align 8
  %5 = alloca i8, align 1
  store ptr %0, ptr %3, align 8
  store ptr %1, ptr %4, align 8
  %6 = load ptr, ptr %3, align 8
  store i8 0, ptr %5, align 1
  %7 = getelementptr inbounds %class.ConversationAction, ptr %6, i32 0, i32 1
  %8 = load ptr, ptr %7, align 8
  %9 = icmp ne ptr %8, null
  br i1 %9, label %10, label %26

10:                                               ; preds = %2
  %11 = load ptr, ptr %4, align 8
  %12 = icmp ne ptr %11, null
  br i1 %12, label %13, label %26

13:                                               ; preds = %10
  %14 = getelementptr inbounds %class.ConversationAction, ptr %6, i32 0, i32 1
  %15 = load ptr, ptr %14, align 8
  %16 = getelementptr inbounds %struct.conversation_filter_s, ptr %15, i32 0, i32 2
  %17 = load ptr, ptr %16, align 8
  %18 = load ptr, ptr %4, align 8
  %19 = getelementptr inbounds %class.ConversationAction, ptr %6, i32 0, i32 1
  %20 = load ptr, ptr %19, align 8
  %21 = getelementptr inbounds %struct.conversation_filter_s, ptr %20, i32 0, i32 4
  %22 = load ptr, ptr %21, align 8
  %23 = call noundef i32 %17(ptr noundef %18, ptr noundef %22)
  %24 = icmp ne i32 %23, 0
  %25 = zext i1 %24 to i8
  store i8 %25, ptr %5, align 1
  br label %26

26:                                               ; preds = %13, %10, %2
  %27 = load i8, ptr %5, align 1
  %28 = trunc i8 %27 to i1
  ret i1 %28
}