; Function Attrs: mustprogress uwtable
define noundef zeroext i1 @_ZN18ConversationAction13isFilterValidEP12_packet_info(ptr nocapture noundef nonnull readonly align 8 dereferenceable(52) %0, ptr noundef %1) local_unnamed_addr #0 align 2 {
  %3 = getelementptr inbounds i8, ptr %0, i64 16
  %4 = load ptr, ptr %3, align 8
  %5 = icmp ne ptr %4, null
  %6 = icmp ne ptr %1, null
  %or.cond = and i1 %6, %5
  br i1 %or.cond, label %7, label %14

7:                                                ; preds = %2
  %8 = getelementptr inbounds i8, ptr %4, i64 16
  %9 = load ptr, ptr %8, align 8
  %10 = getelementptr inbounds i8, ptr %4, i64 32
  %11 = load ptr, ptr %10, align 8
  %12 = tail call noundef i32 %9(ptr noundef nonnull %1, ptr noundef %11)
  %13 = icmp ne i32 %12, 0
  br label %14

14:                                               ; preds = %7, %2
  %.0 = phi i1 [ %13, %7 ], [ false, %2 ]
  ret i1 %.0
}